target datalayout = "e-m:e-p270:32:32-p271:32:32-p272:64:64-i64:64-i128:128-f80:128-n8:16:32:64-S128"
target triple = "x86_64-pc-linux-gnu"

%"class.VrmlTranslator::Buffer" = type <{ ptr, ptr, i32, i32, i32, i32, i32, [4 x i8], ptr, i8, [7 x i8] }>

; Function Attrs: mustprogress uwtable
define noundef i32 @_ZN14VrmlTranslator6Buffer19ReadNextStreamChunkEv(ptr noundef nonnull align 8 dereferenceable(49) %0) #1 align 2 {
  %2 = alloca i32, align 4
  %3 = alloca ptr, align 8
  %4 = alloca i32, align 4
  %5 = alloca ptr, align 8
  %6 = alloca i32, align 4
  store ptr %0, ptr %3, align 8
  %7 = load ptr, ptr %3, align 8
  %8 = getelementptr inbounds %"class.VrmlTranslator::Buffer", ptr %7, i32 0, i32 2
  %9 = load i32, ptr %8, align 8
  %10 = getelementptr inbounds %"class.VrmlTranslator::Buffer", ptr %7, i32 0, i32 4
  %11 = load i32, ptr %10, align 8
  %12 = sub nsw i32 %9, %11
  store i32 %12, ptr %4, align 4
  %13 = load i32, ptr %4, align 4
  %14 = icmp eq i32 %13, 0
  br i1 %14, label %15, label %40

15:                                               ; preds = %1
  %16 = getelementptr inbounds %"class.VrmlTranslator::Buffer", ptr %7, i32 0, i32 4
  %17 = load i32, ptr %16, align 8
  %18 = mul nsw i32 %17, 2
  %19 = getelementptr inbounds %"class.VrmlTranslator::Buffer", ptr %7, i32 0, i32 2
  store i32 %18, ptr %19, align 8
  %20 = getelementptr inbounds %"class.VrmlTranslator::Buffer", ptr %7, i32 0, i32 2
  %21 = load i32, ptr %20, align 8
  %22 = sext i32 %21 to i64
  %23 = call noalias noundef nonnull ptr @_Znam(i64 noundef %22) #14
  store ptr %23, ptr %5, align 8
  %24 = load ptr, ptr %5, align 8
  %25 = getelementptr inbounds %"class.VrmlTranslator::Buffer", ptr %7, i32 0, i32 1
  %26 = load ptr, ptr %25, align 8
  %27 = getelementptr inbounds %"class.VrmlTranslator::Buffer", ptr %7, i32 0, i32 4
  %28 = load i32, ptr %27, align 8
  %29 = sext i32 %28 to i64
  %30 = mul i64 %29, 1
  call void @llvm.memcpy.p0.p0.i64(ptr align 1 %24, ptr align 1 %26, i64 %30, i1 false)
  %31 = getelementptr inbounds %"class.VrmlTranslator::Buffer", ptr %7, i32 0, i32 1
  %32 = load ptr, ptr %31, align 8
  %33 = icmp eq ptr %32, null
  br i1 %33, label %35, label %34

34:                                               ; preds = %15
  call void @_ZdaPv(ptr noundef %32) #13
  br label %35

35:                                               ; preds = %34, %15
  %36 = load ptr, ptr %5, align 8
  %37 = getelementptr inbounds %"class.VrmlTranslator::Buffer", ptr %7, i32 0, i32 1
  store ptr %36, ptr %37, align 8
  %38 = getelementptr inbounds %"class.VrmlTranslator::Buffer", ptr %7, i32 0, i32 4
  %39 = load i32, ptr %38, align 8
  store i32 %39, ptr %4, align 4
  br label %40

40:                                               ; preds = %35, %1
  %41 = getelementptr inbounds %"class.VrmlTranslator::Buffer", ptr %7, i32 0, i32 1
  %42 = load ptr, ptr %41, align 8
  %43 = getelementptr inbounds %"class.VrmlTranslator::Buffer", ptr %7, i32 0, i32 4
  %44 = load i32, ptr %43, align 8
  %45 = sext i32 %44 to i64
  %46 = getelementptr inbounds i8, ptr %42, i64 %45
  %47 = load i32, ptr %4, align 4
  %48 = sext i32 %47 to i64
  %49 = getelementptr inbounds %"class.VrmlTranslator::Buffer", ptr %7, i32 0, i32 8
  %50 = load ptr, ptr %49, align 8
  %51 = call i64 @fread(ptr noundef %46, i64 noundef 1, i64 noundef %48, ptr noundef %50)
  %52 = trunc i64 %51 to i32
  store i32 %52, ptr %6, align 4
  %53 = load i32, ptr %6, align 4
  %54 = icmp sgt i32 %53, 0
  br i1 %54, label %55, label %63

55:                                               ; preds = %40
  %56 = getelementptr inbounds %"class.VrmlTranslator::Buffer", ptr %7, i32 0, i32 4
  %57 = load i32, ptr %56, align 8
  %58 = load i32, ptr %6, align 4
  %59 = add nsw i32 %57, %58
  %60 = getelementptr inbounds %"class.VrmlTranslator::Buffer", ptr %7, i32 0, i32 4
  store i32 %59, ptr %60, align 8
  %61 = getelementptr inbounds %"class.VrmlTranslator::Buffer", ptr %7, i32 0, i32 5
  store i32 %59, ptr %61, align 4
  %62 = load i32, ptr %6, align 4
  store i32 %62, ptr %2, align 4
  br label %64

63:                                               ; preds = %40
  store i32 0, ptr %2, align 4
  br label %64

64:                                               ; preds = %63, %55
  %65 = load i32, ptr %2, align 4
  ret i32 %65
}