; Function Attrs: mustprogress uwtable
define noundef i32 @_ZN14VrmlTranslator6Buffer19ReadNextStreamChunkEv(ptr nocapture noundef nonnull align 8 dereferenceable(49) %0) local_unnamed_addr #2 align 2 {
  %2 = getelementptr inbounds i8, ptr %0, i64 16
  %3 = load i32, ptr %2, align 8
  %4 = getelementptr inbounds i8, ptr %0, i64 24
  %5 = load i32, ptr %4, align 8
  %6 = sub nsw i32 %3, %5
  %7 = icmp eq i32 %6, 0
  br i1 %7, label %8, label %._crit_edge

._crit_edge:                                      ; preds = %1
  %.phi.trans.insert = getelementptr inbounds i8, ptr %0, i64 8
  %.pre12 = load ptr, ptr %.phi.trans.insert, align 8
  br label %19

8:                                                ; preds = %1
  %9 = shl nsw i32 %5, 1
  store i32 %9, ptr %2, align 8
  %10 = sext i32 %9 to i64
  %11 = tail call noalias noundef nonnull ptr @_Znam(i64 noundef %10) #21
  %12 = getelementptr inbounds i8, ptr %0, i64 8
  %13 = load ptr, ptr %12, align 8
  %14 = sext i32 %5 to i64
  tail call void @llvm.memcpy.p0.p0.i64(ptr nonnull align 1 %11, ptr align 1 %13, i64 %14, i1 false)
  %15 = icmp eq ptr %13, null
  br i1 %15, label %17, label %16

16:                                               ; preds = %8
  tail call void @_ZdaPv(ptr noundef nonnull %13) #20
  %.pre = load i32, ptr %4, align 8
  br label %17

17:                                               ; preds = %16, %8
  %18 = phi i32 [ %.pre, %16 ], [ %5, %8 ]
  store ptr %11, ptr %12, align 8
  br label %19

19:                                               ; preds = %._crit_edge, %17
  %20 = phi i32 [ %18, %17 ], [ %5, %._crit_edge ]
  %21 = phi ptr [ %11, %17 ], [ %.pre12, %._crit_edge ]
  %.08 = phi i32 [ %18, %17 ], [ %6, %._crit_edge ]
  %22 = sext i32 %20 to i64
  %23 = getelementptr inbounds i8, ptr %21, i64 %22
  %24 = sext i32 %.08 to i64
  %25 = getelementptr inbounds i8, ptr %0, i64 40
  %26 = load ptr, ptr %25, align 8
  %27 = tail call i64 @fread(ptr noundef %23, i64 noundef 1, i64 noundef %24, ptr noundef %26)
  %28 = trunc i64 %27 to i32
  %29 = icmp sgt i32 %28, 0
  br i1 %29, label %30, label %34

30:                                               ; preds = %19
  %31 = load i32, ptr %4, align 8
  %32 = add nsw i32 %31, %28
  store i32 %32, ptr %4, align 8
  %33 = getelementptr inbounds i8, ptr %0, i64 28
  store i32 %32, ptr %33, align 4
  br label %34

34:                                               ; preds = %19, %30
  %.0 = phi i32 [ %28, %30 ], [ 0, %19 ]
  ret i32 %.0
}